
GccApplication1.elf:     file format elf32-avr

Sections:
Idx Name          Size      VMA       LMA       File off  Algn
  0 .data         00000000  00800100  00800100  00000326  2**0
                  CONTENTS, ALLOC, LOAD, DATA
  1 .text         000002b2  00000000  00000000  00000074  2**1
                  CONTENTS, ALLOC, LOAD, READONLY, CODE
  2 .bss          00000004  00800100  00800100  00000326  2**0
                  ALLOC
  3 .comment      00000030  00000000  00000000  00000326  2**0
                  CONTENTS, READONLY
  4 .note.gnu.avr.deviceinfo 0000003c  00000000  00000000  00000358  2**2
                  CONTENTS, READONLY
  5 .debug_aranges 00000098  00000000  00000000  00000394  2**0
                  CONTENTS, READONLY, DEBUGGING
  6 .debug_info   00000afc  00000000  00000000  0000042c  2**0
                  CONTENTS, READONLY, DEBUGGING
  7 .debug_abbrev 00000757  00000000  00000000  00000f28  2**0
                  CONTENTS, READONLY, DEBUGGING
  8 .debug_line   00000395  00000000  00000000  0000167f  2**0
                  CONTENTS, READONLY, DEBUGGING
  9 .debug_frame  00000108  00000000  00000000  00001a14  2**2
                  CONTENTS, READONLY, DEBUGGING
 10 .debug_str    0000040a  00000000  00000000  00001b1c  2**0
                  CONTENTS, READONLY, DEBUGGING
 11 .debug_loc    0000006d  00000000  00000000  00001f26  2**0
                  CONTENTS, READONLY, DEBUGGING
 12 .debug_ranges 00000078  00000000  00000000  00001f93  2**0
                  CONTENTS, READONLY, DEBUGGING

Disassembly of section .text:

00000000 <__vectors>:
   0:	0c 94 34 00 	jmp	0x68	; 0x68 <__ctors_end>
   4:	0c 94 46 00 	jmp	0x8c	; 0x8c <__bad_interrupt>
   8:	0c 94 46 00 	jmp	0x8c	; 0x8c <__bad_interrupt>
   c:	0c 94 46 00 	jmp	0x8c	; 0x8c <__bad_interrupt>
  10:	0c 94 46 00 	jmp	0x8c	; 0x8c <__bad_interrupt>
  14:	0c 94 46 00 	jmp	0x8c	; 0x8c <__bad_interrupt>
  18:	0c 94 46 00 	jmp	0x8c	; 0x8c <__bad_interrupt>
  1c:	0c 94 46 00 	jmp	0x8c	; 0x8c <__bad_interrupt>
  20:	0c 94 46 00 	jmp	0x8c	; 0x8c <__bad_interrupt>
  24:	0c 94 46 00 	jmp	0x8c	; 0x8c <__bad_interrupt>
  28:	0c 94 46 00 	jmp	0x8c	; 0x8c <__bad_interrupt>
  2c:	0c 94 46 00 	jmp	0x8c	; 0x8c <__bad_interrupt>
  30:	0c 94 46 00 	jmp	0x8c	; 0x8c <__bad_interrupt>
  34:	0c 94 46 00 	jmp	0x8c	; 0x8c <__bad_interrupt>
  38:	0c 94 46 00 	jmp	0x8c	; 0x8c <__bad_interrupt>
  3c:	0c 94 46 00 	jmp	0x8c	; 0x8c <__bad_interrupt>
  40:	0c 94 46 00 	jmp	0x8c	; 0x8c <__bad_interrupt>
  44:	0c 94 46 00 	jmp	0x8c	; 0x8c <__bad_interrupt>
  48:	0c 94 46 00 	jmp	0x8c	; 0x8c <__bad_interrupt>
  4c:	0c 94 46 00 	jmp	0x8c	; 0x8c <__bad_interrupt>
  50:	0c 94 46 00 	jmp	0x8c	; 0x8c <__bad_interrupt>
  54:	0c 94 46 00 	jmp	0x8c	; 0x8c <__bad_interrupt>
  58:	0c 94 46 00 	jmp	0x8c	; 0x8c <__bad_interrupt>
  5c:	0c 94 46 00 	jmp	0x8c	; 0x8c <__bad_interrupt>
  60:	0c 94 46 00 	jmp	0x8c	; 0x8c <__bad_interrupt>
  64:	0c 94 46 00 	jmp	0x8c	; 0x8c <__bad_interrupt>

00000068 <__ctors_end>:
  68:	11 24       	eor	r1, r1
  6a:	1f be       	out	0x3f, r1	; 63
  6c:	cf ef       	ldi	r28, 0xFF	; 255
  6e:	d8 e0       	ldi	r29, 0x08	; 8
  70:	de bf       	out	0x3e, r29	; 62
  72:	cd bf       	out	0x3d, r28	; 61

00000074 <__do_clear_bss>:
  74:	21 e0       	ldi	r18, 0x01	; 1
  76:	a0 e0       	ldi	r26, 0x00	; 0
  78:	b1 e0       	ldi	r27, 0x01	; 1
  7a:	01 c0       	rjmp	.+2      	; 0x7e <.do_clear_bss_start>

0000007c <.do_clear_bss_loop>:
  7c:	1d 92       	st	X+, r1

0000007e <.do_clear_bss_start>:
  7e:	a4 30       	cpi	r26, 0x04	; 4
  80:	b2 07       	cpc	r27, r18
  82:	e1 f7       	brne	.-8      	; 0x7c <.do_clear_bss_loop>
  84:	0e 94 48 00 	call	0x90	; 0x90 <main>
  88:	0c 94 57 01 	jmp	0x2ae	; 0x2ae <_exit>

0000008c <__bad_interrupt>:
  8c:	0c 94 00 00 	jmp	0	; 0x0 <__vectors>

00000090 <main>:
#include "w5_number.h"
volatile long k;

int main(void)
{
    DDRD |= (1<<a) | (1<<b) | (1<<c) | (1<<d) | (1<<e);
  90:	8a b1       	in	r24, 0x0a	; 10
  92:	88 6f       	ori	r24, 0xF8	; 248
  94:	8a b9       	out	0x0a, r24	; 10
	DDRC |= (1<<f) | (1<<g);
  96:	87 b1       	in	r24, 0x07	; 7
  98:	8c 60       	ori	r24, 0x0C	; 12
  9a:	87 b9       	out	0x07, r24	; 7
	while(1)
	{
		k=add(2134, 7612);
  9c:	6c eb       	ldi	r22, 0xBC	; 188
  9e:	7d e1       	ldi	r23, 0x1D	; 29
  a0:	86 e5       	ldi	r24, 0x56	; 86
  a2:	98 e0       	ldi	r25, 0x08	; 8
  a4:	0e 94 0f 01 	call	0x21e	; 0x21e <_Z3addii>
  a8:	09 2e       	mov	r0, r25
  aa:	00 0c       	add	r0, r0
  ac:	aa 0b       	sbc	r26, r26
  ae:	bb 0b       	sbc	r27, r27
  b0:	80 93 00 01 	sts	0x0100, r24	; 0x800100 <_edata>
  b4:	90 93 01 01 	sts	0x0101, r25	; 0x800101 <_edata+0x1>
  b8:	a0 93 02 01 	sts	0x0102, r26	; 0x800102 <_edata+0x2>
  bc:	b0 93 03 01 	sts	0x0103, r27	; 0x800103 <_edata+0x3>
		if(k>10000)
  c0:	80 91 00 01 	lds	r24, 0x0100	; 0x800100 <_edata>
  c4:	90 91 01 01 	lds	r25, 0x0101	; 0x800101 <_edata+0x1>
  c8:	a0 91 02 01 	lds	r26, 0x0102	; 0x800102 <_edata+0x2>
  cc:	b0 91 03 01 	lds	r27, 0x0103	; 0x800103 <_edata+0x3>
  d0:	81 31       	cpi	r24, 0x11	; 17
  d2:	97 42       	sbci	r25, 0x27	; 39
  d4:	a1 05       	cpc	r26, r1
  d6:	b1 05       	cpc	r27, r1
  d8:	4c f1       	brlt	.+82     	; 0x12c <main+0x9c>
		{
			one();delay_105(100000);
  da:	0e 94 34 01 	call	0x268	; 0x268 <_Z3onev>
  de:	60 ea       	ldi	r22, 0xA0	; 160
  e0:	76 e8       	ldi	r23, 0x86	; 134
  e2:	81 e0       	ldi	r24, 0x01	; 1
  e4:	90 e0       	ldi	r25, 0x00	; 0
  e6:	0e 94 bf 00 	call	0x17e	; 0x17e <_Z9delay_105l>
			three();delay_105(100000);
  ea:	0e 94 3e 01 	call	0x27c	; 0x27c <_Z5threev>
  ee:	60 ea       	ldi	r22, 0xA0	; 160
  f0:	76 e8       	ldi	r23, 0x86	; 134
  f2:	81 e0       	ldi	r24, 0x01	; 1
  f4:	90 e0       	ldi	r25, 0x00	; 0
  f6:	0e 94 bf 00 	call	0x17e	; 0x17e <_Z9delay_105l>
			five();delay_105(100000);
  fa:	0e 94 ff 00 	call	0x1fe	; 0x1fe <_Z4fivev>
  fe:	60 ea       	ldi	r22, 0xA0	; 160
 100:	76 e8       	ldi	r23, 0x86	; 134
 102:	81 e0       	ldi	r24, 0x01	; 1
 104:	90 e0       	ldi	r25, 0x00	; 0
 106:	0e 94 bf 00 	call	0x17e	; 0x17e <_Z9delay_105l>
			seven();delay_105(100000);
 10a:	0e 94 45 01 	call	0x28a	; 0x28a <_Z5sevenv>
 10e:	60 ea       	ldi	r22, 0xA0	; 160
 110:	76 e8       	ldi	r23, 0x86	; 134
 112:	81 e0       	ldi	r24, 0x01	; 1
 114:	90 e0       	ldi	r25, 0x00	; 0
 116:	0e 94 bf 00 	call	0x17e	; 0x17e <_Z9delay_105l>
			nine();delay_105(100000);
 11a:	0e 94 4f 01 	call	0x29e	; 0x29e <_Z4ninev>
 11e:	60 ea       	ldi	r22, 0xA0	; 160
 120:	76 e8       	ldi	r23, 0x86	; 134
 122:	81 e0       	ldi	r24, 0x01	; 1
 124:	90 e0       	ldi	r25, 0x00	; 0
 126:	0e 94 bf 00 	call	0x17e	; 0x17e <_Z9delay_105l>
 12a:	b8 cf       	rjmp	.-144    	; 0x9c <main+0xc>
		}
		else
		{
			zero();delay_105(100000);
 12c:	0e 94 09 01 	call	0x212	; 0x212 <_Z4zerov>
 130:	60 ea       	ldi	r22, 0xA0	; 160
 132:	76 e8       	ldi	r23, 0x86	; 134
 134:	81 e0       	ldi	r24, 0x01	; 1
 136:	90 e0       	ldi	r25, 0x00	; 0
 138:	0e 94 bf 00 	call	0x17e	; 0x17e <_Z9delay_105l>
			two();delay_105(100000);
 13c:	0e 94 12 01 	call	0x224	; 0x224 <_Z3twov>
 140:	60 ea       	ldi	r22, 0xA0	; 160
 142:	76 e8       	ldi	r23, 0x86	; 134
 144:	81 e0       	ldi	r24, 0x01	; 1
 146:	90 e0       	ldi	r25, 0x00	; 0
 148:	0e 94 bf 00 	call	0x17e	; 0x17e <_Z9delay_105l>
			four();delay_105(100000);
 14c:	0e 94 1b 01 	call	0x236	; 0x236 <_Z4fourv>
 150:	60 ea       	ldi	r22, 0xA0	; 160
 152:	76 e8       	ldi	r23, 0x86	; 134
 154:	81 e0       	ldi	r24, 0x01	; 1
 156:	90 e0       	ldi	r25, 0x00	; 0
 158:	0e 94 bf 00 	call	0x17e	; 0x17e <_Z9delay_105l>
			six();delay_105(100000);
 15c:	0e 94 25 01 	call	0x24a	; 0x24a <_Z3sixv>
 160:	60 ea       	ldi	r22, 0xA0	; 160
 162:	76 e8       	ldi	r23, 0x86	; 134
 164:	81 e0       	ldi	r24, 0x01	; 1
 166:	90 e0       	ldi	r25, 0x00	; 0
 168:	0e 94 bf 00 	call	0x17e	; 0x17e <_Z9delay_105l>
			eight();delay_105(100000);
 16c:	0e 94 2d 01 	call	0x25a	; 0x25a <_Z5eightv>
 170:	60 ea       	ldi	r22, 0xA0	; 160
 172:	76 e8       	ldi	r23, 0x86	; 134
 174:	81 e0       	ldi	r24, 0x01	; 1
 176:	90 e0       	ldi	r25, 0x00	; 0
 178:	0e 94 bf 00 	call	0x17e	; 0x17e <_Z9delay_105l>
 17c:	8f cf       	rjmp	.-226    	; 0x9c <main+0xc>

0000017e <_Z9delay_105l>:
 */ 
#include "w5_number.h"
#include <avr/io.h>

void delay_105(volatile long m) //subroutine
{
 17e:	cf 93       	push	r28
 180:	df 93       	push	r29
 182:	cd b7       	in	r28, 0x3d	; 61
 184:	de b7       	in	r29, 0x3e	; 62
 186:	28 97       	sbiw	r28, 0x08	; 8
 188:	0f b6       	in	r0, 0x3f	; 63
 18a:	f8 94       	cli
 18c:	de bf       	out	0x3e, r29	; 62
 18e:	0f be       	out	0x3f, r0	; 63
 190:	cd bf       	out	0x3d, r28	; 61
 192:	6d 83       	std	Y+5, r22	; 0x05
 194:	7e 83       	std	Y+6, r23	; 0x06
 196:	8f 83       	std	Y+7, r24	; 0x07
 198:	98 87       	std	Y+8, r25	; 0x08
	for(volatile long k=0; k<m; k++);
 19a:	19 82       	std	Y+1, r1	; 0x01
 19c:	1a 82       	std	Y+2, r1	; 0x02
 19e:	1b 82       	std	Y+3, r1	; 0x03
 1a0:	1c 82       	std	Y+4, r1	; 0x04
 1a2:	49 81       	ldd	r20, Y+1	; 0x01
 1a4:	5a 81       	ldd	r21, Y+2	; 0x02
 1a6:	6b 81       	ldd	r22, Y+3	; 0x03
 1a8:	7c 81       	ldd	r23, Y+4	; 0x04
 1aa:	8d 81       	ldd	r24, Y+5	; 0x05
 1ac:	9e 81       	ldd	r25, Y+6	; 0x06
 1ae:	af 81       	ldd	r26, Y+7	; 0x07
 1b0:	b8 85       	ldd	r27, Y+8	; 0x08
 1b2:	48 17       	cp	r20, r24
 1b4:	59 07       	cpc	r21, r25
 1b6:	6a 07       	cpc	r22, r26
 1b8:	7b 07       	cpc	r23, r27
 1ba:	c4 f4       	brge	.+48     	; 0x1ec <_Z9delay_105l+0x6e>
 1bc:	89 81       	ldd	r24, Y+1	; 0x01
 1be:	9a 81       	ldd	r25, Y+2	; 0x02
 1c0:	ab 81       	ldd	r26, Y+3	; 0x03
 1c2:	bc 81       	ldd	r27, Y+4	; 0x04
 1c4:	01 96       	adiw	r24, 0x01	; 1
 1c6:	a1 1d       	adc	r26, r1
 1c8:	b1 1d       	adc	r27, r1
 1ca:	89 83       	std	Y+1, r24	; 0x01
 1cc:	9a 83       	std	Y+2, r25	; 0x02
 1ce:	ab 83       	std	Y+3, r26	; 0x03
 1d0:	bc 83       	std	Y+4, r27	; 0x04
 1d2:	49 81       	ldd	r20, Y+1	; 0x01
 1d4:	5a 81       	ldd	r21, Y+2	; 0x02
 1d6:	6b 81       	ldd	r22, Y+3	; 0x03
 1d8:	7c 81       	ldd	r23, Y+4	; 0x04
 1da:	8d 81       	ldd	r24, Y+5	; 0x05
 1dc:	9e 81       	ldd	r25, Y+6	; 0x06
 1de:	af 81       	ldd	r26, Y+7	; 0x07
 1e0:	b8 85       	ldd	r27, Y+8	; 0x08
 1e2:	48 17       	cp	r20, r24
 1e4:	59 07       	cpc	r21, r25
 1e6:	6a 07       	cpc	r22, r26
 1e8:	7b 07       	cpc	r23, r27
 1ea:	44 f3       	brlt	.-48     	; 0x1bc <_Z9delay_105l+0x3e>
}
 1ec:	28 96       	adiw	r28, 0x08	; 8
 1ee:	0f b6       	in	r0, 0x3f	; 63
 1f0:	f8 94       	cli
 1f2:	de bf       	out	0x3e, r29	; 62
 1f4:	0f be       	out	0x3f, r0	; 63
 1f6:	cd bf       	out	0x3d, r28	; 61
 1f8:	df 91       	pop	r29
 1fa:	cf 91       	pop	r28
 1fc:	08 95       	ret

000001fe <_Z4fivev>:
void five(void)
{
	PORTD |= (1<<b) | (1<<e);
 1fe:	8b b1       	in	r24, 0x0b	; 11
 200:	80 69       	ori	r24, 0x90	; 144
 202:	8b b9       	out	0x0b, r24	; 11
	PORTD &= (~(1<<a)) & (~(1<<c)) & (~(1<<d));
 204:	8b b1       	in	r24, 0x0b	; 11
 206:	87 79       	andi	r24, 0x97	; 151
 208:	8b b9       	out	0x0b, r24	; 11
	PORTC &= (~(1<<f)) & (~(1<<g));
 20a:	88 b1       	in	r24, 0x08	; 8
 20c:	83 7f       	andi	r24, 0xF3	; 243
 20e:	88 b9       	out	0x08, r24	; 8
 210:	08 95       	ret

00000212 <_Z4zerov>:
}
void zero(void)
{
	PORTD |= (1<<b) | (1<<e) | (~(1<<a)) | (~(1<<c)) | (~(1<<d));
 212:	8b b1       	in	r24, 0x0b	; 11
 214:	8f ef       	ldi	r24, 0xFF	; 255
 216:	8b b9       	out	0x0b, r24	; 11
	PORTC |= (~(1<<f)) | (~(1<<g));
 218:	98 b1       	in	r25, 0x08	; 8
 21a:	88 b9       	out	0x08, r24	; 8
 21c:	08 95       	ret

0000021e <_Z3addii>:
}
*/
int add(int i, int j)
{
	return i+j;
}
 21e:	86 0f       	add	r24, r22
 220:	97 1f       	adc	r25, r23
 222:	08 95       	ret

00000224 <_Z3twov>:


void two(void)
{
	PORTD &= (~(1<<a)) & (~(1<<b)) & (~(1<<d)) & (~(1<<e));
 224:	8b b1       	in	r24, 0x0b	; 11
 226:	87 72       	andi	r24, 0x27	; 39
 228:	8b b9       	out	0x0b, r24	; 11
	PORTC &= (~(1<<f)) & (~(1<<g));
 22a:	88 b1       	in	r24, 0x08	; 8
 22c:	83 7f       	andi	r24, 0xF3	; 243
 22e:	88 b9       	out	0x08, r24	; 8
	PORTD |= (1<<c);
 230:	5d 9a       	sbi	0x0b, 5	; 11
	PORTC |= (1<<f);
 232:	42 9a       	sbi	0x08, 2	; 8
 234:	08 95       	ret

00000236 <_Z4fourv>:
}
void four(void)
{
	PORTD &= (~(1<<b)) & (~(1<<c));
 236:	8b b1       	in	r24, 0x0b	; 11
 238:	8f 7c       	andi	r24, 0xCF	; 207
 23a:	8b b9       	out	0x0b, r24	; 11
	PORTC &= (~(1<<f)) & (~(1<<g));
 23c:	88 b1       	in	r24, 0x08	; 8
 23e:	83 7f       	andi	r24, 0xF3	; 243
 240:	88 b9       	out	0x08, r24	; 8
	PORTD |= (1<<a) | (1<<d) | (1<<e);
 242:	8b b1       	in	r24, 0x0b	; 11
 244:	88 6c       	ori	r24, 0xC8	; 200
 246:	8b b9       	out	0x0b, r24	; 11
 248:	08 95       	ret

0000024a <_Z3sixv>:
}
void six(void)
{
	PORTD &= (~(1<<a)) & (~(1<<c))& (~(1<<d)) & (~(1<<e));
 24a:	8b b1       	in	r24, 0x0b	; 11
 24c:	87 71       	andi	r24, 0x17	; 23
 24e:	8b b9       	out	0x0b, r24	; 11
	PORTC &= (~(1<<f)) & (~(1<<g));
 250:	88 b1       	in	r24, 0x08	; 8
 252:	83 7f       	andi	r24, 0xF3	; 243
 254:	88 b9       	out	0x08, r24	; 8
	PORTD |= (1<<b);
 256:	5c 9a       	sbi	0x0b, 4	; 11
 258:	08 95       	ret

0000025a <_Z5eightv>:
}
void eight(void)
{
	PORTD &= (~(1<<a)) &(~(1<<b)) & (~(1<<c)) & (~(1<<d)) & (~(1<<e));
 25a:	8b b1       	in	r24, 0x0b	; 11
 25c:	87 70       	andi	r24, 0x07	; 7
 25e:	8b b9       	out	0x0b, r24	; 11
	PORTC &= (~(1<<f)) & (~(1<<g));
 260:	88 b1       	in	r24, 0x08	; 8
 262:	83 7f       	andi	r24, 0xF3	; 243
 264:	88 b9       	out	0x08, r24	; 8
 266:	08 95       	ret

00000268 <_Z3onev>:
}
void one(void)
{
	PORTD &= (~(1<<b)) & (~(1<<c));
 268:	8b b1       	in	r24, 0x0b	; 11
 26a:	8f 7c       	andi	r24, 0xCF	; 207
 26c:	8b b9       	out	0x0b, r24	; 11
	PORTC |= (1<<f) | (1<<g);
 26e:	88 b1       	in	r24, 0x08	; 8
 270:	8c 60       	ori	r24, 0x0C	; 12
 272:	88 b9       	out	0x08, r24	; 8
	PORTD |= (1<<a) | (1<<d) | (1<<e);
 274:	8b b1       	in	r24, 0x0b	; 11
 276:	88 6c       	ori	r24, 0xC8	; 200
 278:	8b b9       	out	0x0b, r24	; 11
 27a:	08 95       	ret

0000027c <_Z5threev>:
}
void three(void)
{
	PORTD &= (~(1<<a)) & (~(1<<c)) & (~(1<<d)) & (~(1<<e));
 27c:	8b b1       	in	r24, 0x0b	; 11
 27e:	87 71       	andi	r24, 0x17	; 23
 280:	8b b9       	out	0x0b, r24	; 11
	PORTC &= (~(1<<g));
 282:	43 98       	cbi	0x08, 3	; 8
	PORTD |= (1<<b);
 284:	5c 9a       	sbi	0x0b, 4	; 11
	PORTC |= (1<<f);
 286:	42 9a       	sbi	0x08, 2	; 8
 288:	08 95       	ret

0000028a <_Z5sevenv>:
}
void seven(void)
{
	PORTD &= (~(1<<a)) &(~(1<<b)) & (~(1<<c)) ;
 28a:	8b b1       	in	r24, 0x0b	; 11
 28c:	87 7c       	andi	r24, 0xC7	; 199
 28e:	8b b9       	out	0x0b, r24	; 11
	PORTC |= (1<<f) | (1<<g);
 290:	88 b1       	in	r24, 0x08	; 8
 292:	8c 60       	ori	r24, 0x0C	; 12
 294:	88 b9       	out	0x08, r24	; 8
	PORTD |= (1<<d) | (1<<e);
 296:	8b b1       	in	r24, 0x0b	; 11
 298:	80 6c       	ori	r24, 0xC0	; 192
 29a:	8b b9       	out	0x0b, r24	; 11
 29c:	08 95       	ret

0000029e <_Z4ninev>:
}
	
void nine(void)
{
	PORTD &= (~(1<<a)) &(~(1<<b)) & (~(1<<c)) & (~(1<<e));
 29e:	8b b1       	in	r24, 0x0b	; 11
 2a0:	87 74       	andi	r24, 0x47	; 71
 2a2:	8b b9       	out	0x0b, r24	; 11
	PORTC &= (~(1<<f)) & (~(1<<g));
 2a4:	88 b1       	in	r24, 0x08	; 8
 2a6:	83 7f       	andi	r24, 0xF3	; 243
 2a8:	88 b9       	out	0x08, r24	; 8
	PORTD |=(1<<d);
 2aa:	5e 9a       	sbi	0x0b, 6	; 11
 2ac:	08 95       	ret

000002ae <_exit>:
 2ae:	f8 94       	cli

000002b0 <__stop_program>:
 2b0:	ff cf       	rjmp	.-2      	; 0x2b0 <__stop_program>
